target datalayout = "e-m:e-p270:32:32-p271:32:32-p272:64:64-i64:64-i128:128-f80:128-n8:16:32:64-S128"
target triple = "x86_64-pc-linux-gnu"

@.str.19 = private unnamed_addr constant [3 x i8] c"  \00", align 1
@.str.21 = private unnamed_addr constant [11 x i8] c"UU%d =%5d \00", align 1

; Function Attrs: inlinehint nounwind uwtable
define internal i32 @Abc_LitNotCond(i32 noundef %0, i32 noundef %1) #2 {
  %3 = alloca i32, align 4
  %4 = alloca i32, align 4
  store i32 %0, ptr %3, align 4, !tbaa !10
  store i32 %1, ptr %4, align 4, !tbaa !10
  %5 = load i32, ptr %3, align 4, !tbaa !10
  %6 = load i32, ptr %4, align 4, !tbaa !10
  %7 = icmp sgt i32 %6, 0
  %8 = zext i1 %7 to i32
  %9 = xor i32 %5, %8
  ret i32 %9
}

; Function Attrs: nounwind uwtable
define i32 @Gia_ManFindTwoUnate(ptr noundef %0, ptr noundef %1, i32 noundef %2, ptr noundef %3, ptr noundef %4, i32 noundef %5) #0 {
  %7 = alloca i32, align 4
  %8 = alloca ptr, align 8
  %9 = alloca ptr, align 8
  %10 = alloca i32, align 4
  %11 = alloca ptr, align 8
  %12 = alloca ptr, align 8
  %13 = alloca i32, align 4
  %14 = alloca i32, align 4
  %15 = alloca i32, align 4
  %16 = alloca i32, align 4
  %17 = alloca i32, align 4
  store ptr %0, ptr %8, align 8, !tbaa !150
  store ptr %1, ptr %9, align 8, !tbaa !80
  store i32 %2, ptr %10, align 4, !tbaa !10
  store ptr %3, ptr %11, align 8, !tbaa !125
  store ptr %4, ptr %12, align 8, !tbaa !125
  store i32 %5, ptr %13, align 4, !tbaa !10
  call void @llvm.lifetime.start.p0(i64 4, ptr %14) #14
  call void @llvm.lifetime.start.p0(i64 4, ptr %15) #14
  call void @llvm.lifetime.start.p0(i64 4, ptr %16) #14
  %18 = load i32, ptr %13, align 4, !tbaa !10
  %19 = icmp ne i32 %18, 0
  br i1 %19, label %20, label %22

20:                                               ; preds = %6
  %21 = call i32 (ptr, ...) @printf(ptr noundef @.str.19)
  br label %22

22:                                               ; preds = %20, %6
  store i32 0, ptr %14, align 4, !tbaa !10
  br label %23

23:                                               ; preds = %67, %22
  %24 = load i32, ptr %14, align 4, !tbaa !10
  %25 = icmp slt i32 %24, 2
  br i1 %25, label %26, label %70

26:                                               ; preds = %23
  %27 = load ptr, ptr %8, align 8, !tbaa !150
  %28 = load i32, ptr %14, align 4, !tbaa !10
  %29 = sext i32 %28 to i64
  %30 = getelementptr inbounds ptr, ptr %27, i64 %29
  %31 = load ptr, ptr %30, align 8, !tbaa !76
  %32 = load ptr, ptr %8, align 8, !tbaa !150
  %33 = load i32, ptr %14, align 4, !tbaa !10
  %34 = icmp ne i32 %33, 0
  %35 = xor i1 %34, true
  %36 = zext i1 %35 to i32
  %37 = sext i32 %36 to i64
  %38 = getelementptr inbounds ptr, ptr %32, i64 %37
  %39 = load ptr, ptr %38, align 8, !tbaa !76
  %40 = load ptr, ptr %9, align 8, !tbaa !80
  %41 = load i32, ptr %10, align 4, !tbaa !10
  %42 = load ptr, ptr %11, align 8, !tbaa !125
  %43 = load i32, ptr %14, align 4, !tbaa !10
  %44 = sext i32 %43 to i64
  %45 = getelementptr inbounds ptr, ptr %42, i64 %44
  %46 = load ptr, ptr %45, align 8, !tbaa !12
  %47 = load ptr, ptr %12, align 8, !tbaa !125
  %48 = load i32, ptr %14, align 4, !tbaa !10
  %49 = sext i32 %48 to i64
  %50 = getelementptr inbounds ptr, ptr %47, i64 %49
  %51 = load ptr, ptr %50, align 8, !tbaa !12
  %52 = call i32 @Gia_ManFindTwoUnateInt(ptr noundef %31, ptr noundef %39, ptr noundef %40, i32 noundef %41, ptr noundef %46, ptr noundef %51, ptr noundef %16)
  store i32 %52, ptr %15, align 4, !tbaa !10
  %53 = load i32, ptr %13, align 4, !tbaa !10
  %54 = icmp ne i32 %53, 0
  br i1 %54, label %55, label %59

55:                                               ; preds = %26
  %56 = load i32, ptr %14, align 4, !tbaa !10
  %57 = load i32, ptr %16, align 4, !tbaa !10
  %58 = call i32 (ptr, ...) @printf(ptr noundef @.str.21, i32 noundef %56, i32 noundef %57)
  br label %59

59:                                               ; preds = %55, %26
  %60 = load i32, ptr %15, align 4, !tbaa !10
  %61 = icmp sge i32 %60, 0
  br i1 %61, label %62, label %66

62:                                               ; preds = %59
  %63 = load i32, ptr %15, align 4, !tbaa !10
  %64 = load i32, ptr %14, align 4, !tbaa !10
  %65 = call i32 @Abc_LitNotCond(i32 noundef %63, i32 noundef %64)
  store i32 %65, ptr %7, align 4
  store i32 1, ptr %17, align 4
  br label %71

66:                                               ; preds = %59
  br label %67

67:                                               ; preds = %66
  %68 = load i32, ptr %14, align 4, !tbaa !10
  %69 = add nsw i32 %68, 1
  store i32 %69, ptr %14, align 4, !tbaa !10
  br label %23, !llvm.loop !159

70:                                               ; preds = %23
  store i32 -1, ptr %7, align 4
  store i32 1, ptr %17, align 4
  br label %71

71:                                               ; preds = %70, %62
  call void @llvm.lifetime.end.p0(i64 4, ptr %16) #14
  call void @llvm.lifetime.end.p0(i64 4, ptr %15) #14
  call void @llvm.lifetime.end.p0(i64 4, ptr %14) #14
  %72 = load i32, ptr %7, align 4
  ret i32 %72
}