; Function Attrs: nofree nounwind uwtable
define range(i32 -1, -2147483648) i32 @Gia_ManFindTwoUnate(ptr noundef readonly captures(none) %0, ptr noundef readonly captures(none) %1, i32 noundef %2, ptr noundef readonly captures(none) %3, ptr noundef readonly captures(none) %4, i32 noundef %5) local_unnamed_addr #3 {
  %7 = alloca i32, align 4
  call void @llvm.lifetime.start.p0(i64 4, ptr nonnull %7) #32
  %.not = icmp eq i32 %5, 0
  br i1 %.not, label %.split.us, label %8

8:                                                ; preds = %6
  %9 = tail call i32 (ptr, ...) @printf(ptr noundef nonnull dereferenceable(1) @.str.19)
  br label %.split

.split.us:                                        ; preds = %6, %20
  %10 = phi i1 [ false, %20 ], [ true, %6 ]
  %indvars.iv34 = phi i64 [ 1, %20 ], [ 0, %6 ]
  %11 = xor i64 %indvars.iv34, 1
  %12 = getelementptr inbounds nuw ptr, ptr %0, i64 %11
  %13 = load ptr, ptr %12, align 8, !tbaa !78
  %14 = getelementptr inbounds nuw ptr, ptr %3, i64 %indvars.iv34
  %15 = load ptr, ptr %14, align 8, !tbaa !69
  %16 = getelementptr inbounds nuw ptr, ptr %4, i64 %indvars.iv34
  %17 = load ptr, ptr %16, align 8, !tbaa !69
  %18 = call i32 @Gia_ManFindTwoUnateInt(ptr poison, ptr noundef %13, ptr noundef %1, i32 noundef %2, ptr noundef %15, ptr noundef %17, ptr noundef nonnull %7)
  %19 = icmp sgt i32 %18, -1
  br i1 %19, label %.split24.us.loopexit, label %20

20:                                               ; preds = %.split.us
  br i1 %10, label %.split.us, label %.loopexit, !llvm.loop !148

.split:                                           ; preds = %8, %38
  %21 = phi i1 [ true, %8 ], [ false, %38 ]
  %indvars.iv = phi i64 [ 0, %8 ], [ 1, %38 ]
  %22 = trunc nuw nsw i64 %indvars.iv to i32
  %23 = xor i64 %indvars.iv, 1
  %24 = getelementptr inbounds nuw ptr, ptr %0, i64 %23
  %25 = load ptr, ptr %24, align 8, !tbaa !78
  %26 = getelementptr inbounds nuw ptr, ptr %3, i64 %indvars.iv
  %27 = load ptr, ptr %26, align 8, !tbaa !69
  %28 = getelementptr inbounds nuw ptr, ptr %4, i64 %indvars.iv
  %29 = load ptr, ptr %28, align 8, !tbaa !69
  %30 = call i32 @Gia_ManFindTwoUnateInt(ptr poison, ptr noundef %25, ptr noundef %1, i32 noundef %2, ptr noundef %27, ptr noundef %29, ptr noundef nonnull %7)
  %31 = load i32, ptr %7, align 4, !tbaa !31
  %32 = tail call i32 (ptr, ...) @printf(ptr noundef nonnull dereferenceable(1) @.str.21, i32 noundef %22, i32 noundef %31)
  %33 = icmp sgt i32 %30, -1
  br i1 %33, label %.split24.us, label %38

.split24.us.loopexit:                             ; preds = %.split.us
  %34 = trunc nuw nsw i64 %indvars.iv34 to i32
  br label %.split24.us

.split24.us:                                      ; preds = %.split, %.split24.us.loopexit
  %.us-phi = phi i32 [ %18, %.split24.us.loopexit ], [ %30, %.split ]
  %.us-phi25 = phi i32 [ %34, %.split24.us.loopexit ], [ %22, %.split ]
  %35 = icmp eq i32 %.us-phi25, 1
  %36 = zext i1 %35 to i32
  %37 = xor i32 %.us-phi, %36
  br label %.loopexit

38:                                               ; preds = %.split
  br i1 %21, label %.split, label %.loopexit, !llvm.loop !148

.loopexit:                                        ; preds = %38, %20, %.split24.us
  %.0 = phi i32 [ %37, %.split24.us ], [ -1, %20 ], [ -1, %38 ]
  call void @llvm.lifetime.end.p0(i64 4, ptr nonnull %7) #32
  ret i32 %.0
}